; Function Attrs: mustprogress nofree norecurse nosync nounwind willreturn memory(read, inaccessiblemem: none) uwtable
define { ptr, i64 } @_ZNK11OpenImageIO6v3_1_08DeepData16all_channeltypesEv(ptr noundef nonnull readonly align 8 captures(none) dereferenceable(20) %0) local_unnamed_addr #12 align 2 {
  %2 = load ptr, ptr %0, align 8, !tbaa !35
  %3 = load ptr, ptr %2, align 8, !tbaa !9
  %4 = getelementptr inbounds nuw i8, ptr %2, i64 8
  %5 = load ptr, ptr %4, align 8, !tbaa !3
  %6 = ptrtoint ptr %5 to i64
  %7 = ptrtoint ptr %3 to i64
  %8 = sub i64 %6, %7
  %9 = ashr exact i64 %8, 3
  %.fca.0.insert = insertvalue { ptr, i64 } poison, ptr %3, 0
  %.fca.1.insert = insertvalue { ptr, i64 } %.fca.0.insert, i64 %9, 1
  ret { ptr, i64 } %.fca.1.insert
}